; Function Attrs: nounwind uwtable
define noalias noundef ptr @Unm_ManAlloc(ptr noundef %0) local_unnamed_addr #0 {
  %2 = alloca %struct.timespec, align 8
  %3 = tail call noalias dereferenceable_or_null(72) ptr @calloc(i64 noundef 1, i64 noundef 72) #18
  call void @llvm.lifetime.start.p0(i64 16, ptr nonnull %2) #19
  %4 = call i32 @clock_gettime(i32 noundef 1, ptr noundef nonnull %2) #19
  %5 = icmp slt i32 %4, 0
  br i1 %5, label %Abc_Clock.exit, label %6

6:                                                ; preds = %1
  %7 = load i64, ptr %2, align 8, !tbaa !3
  %8 = mul nsw i64 %7, 1000000
  %9 = getelementptr inbounds nuw i8, ptr %2, i64 8
  %10 = load i64, ptr %9, align 8, !tbaa !8
  %11 = sdiv i64 %10, 1000
  %12 = add nsw i64 %11, %8
  br label %Abc_Clock.exit

Abc_Clock.exit:                                   ; preds = %1, %6
  %.0.i = phi i64 [ %12, %6 ], [ -1, %1 ]
  call void @llvm.lifetime.end.p0(i64 16, ptr nonnull %2) #19
  %13 = getelementptr inbounds nuw i8, ptr %3, i64 64
  store i64 %.0.i, ptr %13, align 8, !tbaa !9
  %14 = getelementptr i8, ptr %0, i64 24
  %.val = load i32, ptr %14, align 8, !tbaa !17
  %15 = mul nsw i32 %.val, 3
  %16 = sdiv i32 %15, 2
  %17 = getelementptr inbounds nuw i8, ptr %3, i64 24
  store i32 %16, ptr %17, align 8, !tbaa !34
  store ptr %0, ptr %3, align 8, !tbaa !35
  %18 = call ptr @Gia_ManStart(i32 noundef %16) #19
  %19 = getelementptr inbounds nuw i8, ptr %3, i64 8
  store ptr %18, ptr %19, align 8, !tbaa !36
  %20 = load ptr, ptr %0, align 8, !tbaa !37
  %.not.i = icmp eq ptr %20, null
  br i1 %.not.i, label %Abc_UtilStrsav.exit, label %21

21:                                               ; preds = %Abc_Clock.exit
  %22 = call i64 @strlen(ptr noundef nonnull readonly dereferenceable(1) %20) #20
  %23 = add i64 %22, 1
  %24 = call noalias ptr @malloc(i64 noundef %23) #21
  %25 = call ptr @strcpy(ptr noundef nonnull dereferenceable(1) %24, ptr noundef nonnull readonly dereferenceable(1) %20) #19
  br label %Abc_UtilStrsav.exit

Abc_UtilStrsav.exit:                              ; preds = %Abc_Clock.exit, %21
  %26 = phi ptr [ %24, %21 ], [ null, %Abc_Clock.exit ]
  store ptr %26, ptr %18, align 8, !tbaa !37
  %27 = getelementptr inbounds nuw i8, ptr %0, i64 8
  %28 = load ptr, ptr %27, align 8, !tbaa !38
  %.not.i21 = icmp eq ptr %28, null
  br i1 %.not.i21, label %Abc_UtilStrsav.exit22, label %29

29:                                               ; preds = %Abc_UtilStrsav.exit
  %30 = call i64 @strlen(ptr noundef nonnull readonly dereferenceable(1) %28) #20
  %31 = add i64 %30, 1
  %32 = call noalias ptr @malloc(i64 noundef %31) #21
  %33 = call ptr @strcpy(ptr noundef nonnull dereferenceable(1) %32, ptr noundef nonnull readonly dereferenceable(1) %28) #19
  br label %Abc_UtilStrsav.exit22

Abc_UtilStrsav.exit22:                            ; preds = %Abc_UtilStrsav.exit, %29
  %34 = phi ptr [ %32, %29 ], [ null, %Abc_UtilStrsav.exit ]
  %35 = getelementptr inbounds nuw i8, ptr %18, i64 8
  store ptr %34, ptr %35, align 8, !tbaa !38
  call void @Gia_ManHashAlloc(ptr noundef nonnull %18) #19
  call void @Gia_ManCleanLevels(ptr noundef nonnull %18, i32 noundef %16) #19
  %36 = getelementptr inbounds nuw i8, ptr %18, i64 24
  store i32 %16, ptr %36, align 8, !tbaa !17
  call void @Gia_ManIncrementTravId(ptr noundef nonnull %18) #19
  store i32 1, ptr %36, align 8, !tbaa !17
  %37 = call noalias dereferenceable_or_null(24) ptr @calloc(i64 noundef 1, i64 noundef 24) #18
  br label %.loopexit.i.i

.loopexit.i.i:                                    ; preds = %.loopexit.i.i.backedge, %Abc_UtilStrsav.exit22
  %.012.i.i = phi i32 [ 1099, %Abc_UtilStrsav.exit22 ], [ %38, %.loopexit.i.i.backedge ]
  %38 = add i32 %.012.i.i, 1
  %39 = and i32 %.012.i.i, 1
  %.not.not.i.i = icmp eq i32 %39, 0
  br i1 %.not.not.i.i, label %.preheader.i.i, label %.loopexit.i.i.backedge

.loopexit.i.i.backedge:                           ; preds = %.lr.ph.i.i, %.loopexit.i.i
  br label %.loopexit.i.i, !llvm.loop !39

.preheader.i.i:                                   ; preds = %.loopexit.i.i
  %.not15.i.i = icmp ult i32 %38, 9
  br i1 %.not15.i.i, label %Abc_PrimeCudd.exit.i, label %.lr.ph.i.i

40:                                               ; preds = %.lr.ph.i.i
  %41 = add nuw nsw i32 %.01116.i.i, 2
  %42 = mul nuw nsw i32 %41, %41
  %.not.i.i = icmp ugt i32 %42, %38
  br i1 %.not.i.i, label %Abc_PrimeCudd.exit.i, label %.lr.ph.i.i, !llvm.loop !41

.lr.ph.i.i:                                       ; preds = %.preheader.i.i, %40
  %.01116.i.i = phi i32 [ %41, %40 ], [ 3, %.preheader.i.i ]
  %43 = urem i32 %38, %.01116.i.i
  %44 = icmp eq i32 %43, 0
  br i1 %44, label %.loopexit.i.i.backedge, label %40, !llvm.loop !39

Abc_PrimeCudd.exit.i:                             ; preds = %.preheader.i.i, %40
  %45 = call noalias dereferenceable_or_null(16) ptr @malloc(i64 noundef 16) #21
  %or.cond.i.i.i = icmp ult i32 %.012.i.i, 15
  %spec.store.select.i.i.i = select i1 %or.cond.i.i.i, i32 16, i32 %38
  store i32 %spec.store.select.i.i.i, ptr %45, align 8, !tbaa !42
  %46 = getelementptr inbounds nuw i8, ptr %45, i64 4
  %47 = sext i32 %spec.store.select.i.i.i to i64
  %48 = shl nsw i64 %47, 2
  %49 = call noalias ptr @malloc(i64 noundef %48) #21
  %50 = getelementptr inbounds nuw i8, ptr %45, i64 8
  store ptr %49, ptr %50, align 8, !tbaa !43
  store i32 %38, ptr %46, align 4, !tbaa !44
  %.not.i7.i = icmp eq ptr %49, null
  br i1 %.not.i7.i, label %Hash_IntManStart.exit, label %51

51:                                               ; preds = %Abc_PrimeCudd.exit.i
  %52 = sext i32 %38 to i64
  %53 = shl nsw i64 %52, 2
  call void @llvm.memset.p0.i64(ptr nonnull align 4 %49, i8 0, i64 %53, i1 false)
  br label %Hash_IntManStart.exit

Hash_IntManStart.exit:                            ; preds = %Abc_PrimeCudd.exit.i, %51
  store ptr %45, ptr %37, align 8, !tbaa !45
  %54 = call noalias dereferenceable_or_null(16) ptr @malloc(i64 noundef 16) #21
  %55 = getelementptr inbounds nuw i8, ptr %54, i64 4
  store i32 4400, ptr %54, align 8, !tbaa !42
  %56 = call noalias dereferenceable_or_null(17600) ptr @malloc(i64 noundef 17600) #21
  %57 = getelementptr inbounds nuw i8, ptr %54, i64 8
  store ptr %56, ptr %57, align 8, !tbaa !43
  %58 = getelementptr inbounds nuw i8, ptr %37, i64 8
  store ptr %54, ptr %58, align 8, !tbaa !47
  call void @llvm.memset.p0.i64(ptr noundef nonnull align 4 dereferenceable(16) %56, i8 0, i64 16, i1 false), !tbaa !48
  store i32 4, ptr %55, align 4, !tbaa !44
  %59 = getelementptr inbounds nuw i8, ptr %37, i64 16
  store i32 1, ptr %59, align 8, !tbaa !49
  %60 = getelementptr inbounds nuw i8, ptr %3, i64 16
  store ptr %37, ptr %60, align 8, !tbaa !50
  %61 = call noalias dereferenceable_or_null(16) ptr @malloc(i64 noundef 16) #21
  %62 = getelementptr inbounds nuw i8, ptr %61, i64 4
  store i32 16, ptr %61, align 8, !tbaa !42
  %63 = call noalias dereferenceable_or_null(64) ptr @malloc(i64 noundef 64) #21
  %64 = getelementptr inbounds nuw i8, ptr %61, i64 8
  store ptr %63, ptr %64, align 8, !tbaa !43
  store i32 10, ptr %62, align 4, !tbaa !44
  %.not.i23 = icmp eq ptr %63, null
  br i1 %.not.i23, label %Vec_IntStart.exit, label %65

65:                                               ; preds = %Hash_IntManStart.exit
  call void @llvm.memset.p0.i64(ptr noundef nonnull align 4 dereferenceable(40) %63, i8 0, i64 40, i1 false)
  br label %Vec_IntStart.exit

Vec_IntStart.exit:                                ; preds = %Hash_IntManStart.exit, %65
  %66 = getelementptr inbounds nuw i8, ptr %3, i64 56
  store ptr %61, ptr %66, align 8, !tbaa !51
  ret ptr %3
}